; Function Attrs: null_pointer_is_valid sspstrong uwtable
define internal noundef i32 @dissect_manolito(ptr noundef %0, ptr noundef %1, ptr noundef %2, ptr readnone captures(none) %3) #0 {
  %5 = getelementptr inbounds nuw i8, ptr %1, i64 8
  %6 = load ptr, ptr %5, align 8
  tail call void @col_set_str(ptr noundef %6, i32 noundef 35, ptr noundef nonnull @.str.25)
  %7 = load i32, ptr @proto_manolito, align 4
  %8 = tail call ptr @proto_tree_add_item(ptr noundef %2, i32 noundef %7, ptr noundef %0, i32 noundef 0, i32 noundef -1, i32 noundef 0)
  %9 = load i32, ptr @ett_manolito, align 4
  %10 = tail call ptr @proto_item_add_subtree(ptr noundef %8, i32 noundef %9)
  %11 = load i32, ptr @hf_manolito_checksum, align 4
  %12 = tail call ptr @proto_tree_add_checksum(ptr noundef %10, ptr noundef %0, i32 noundef 0, i32 noundef %11, i32 noundef -1, ptr noundef null, ptr noundef %1, i32 noundef 0, i32 noundef 0, i32 noundef 0)
  %13 = load i32, ptr @hf_manolito_seqno, align 4
  %14 = tail call ptr @proto_tree_add_item(ptr noundef %10, i32 noundef %13, ptr noundef %0, i32 noundef 4, i32 noundef 4, i32 noundef 0)
  %15 = load i32, ptr @hf_manolito_src, align 4
  %16 = tail call ptr @proto_tree_add_item(ptr noundef %10, i32 noundef %15, ptr noundef %0, i32 noundef 8, i32 noundef 4, i32 noundef 0)
  %17 = load i32, ptr @hf_manolito_dest, align 4
  %18 = tail call ptr @proto_tree_add_item(ptr noundef %10, i32 noundef %17, ptr noundef %0, i32 noundef 12, i32 noundef 4, i32 noundef 0)
  %19 = tail call i32 @tvb_reported_length_remaining(ptr noundef %0, i32 noundef 16)
  %20 = icmp eq i32 %19, 3
  br i1 %20, label %21, label %24

21:                                               ; preds = %4
  %22 = load i32, ptr @hf_manolito_options_short, align 4
  %23 = tail call ptr @proto_tree_add_item(ptr noundef %10, i32 noundef %22, ptr noundef %0, i32 noundef 16, i32 noundef 3, i32 noundef 0)
  br label %.sink.split

24:                                               ; preds = %4
  %25 = load i32, ptr @hf_manolito_options, align 4
  %26 = tail call ptr @proto_tree_add_item(ptr noundef %10, i32 noundef %25, ptr noundef %0, i32 noundef 16, i32 noundef 4, i32 noundef 0)
  %27 = tail call i32 @tvb_reported_length_remaining(ptr noundef %0, i32 noundef 20)
  %28 = icmp eq i32 %27, 0
  br i1 %28, label %.sink.split, label %.preheader

.preheader:                                       ; preds = %24
  %29 = getelementptr inbounds nuw i8, ptr %1, i64 408
  br label %30

30:                                               ; preds = %.preheader, %84
  %.0111 = phi ptr [ %.1112, %84 ], [ null, %.preheader ]
  %.0110 = phi i32 [ %.1, %84 ], [ 20, %.preheader ]
  %31 = tail call zeroext i16 @tvb_get_ntohs(ptr noundef %0, i32 noundef %.0110)
  %32 = load ptr, ptr %29, align 8
  %33 = tail call ptr @tvb_get_string_enc(ptr noundef %32, ptr noundef %0, i32 noundef %.0110, i32 noundef 2, i32 noundef 0)
  %.not = icmp eq ptr %.0111, null
  br i1 %.not, label %34, label %41

34:                                               ; preds = %30
  %35 = icmp eq i16 %31, 17227
  %spec.select = select i1 %35, ptr @.str.28, ptr null
  %36 = icmp eq i16 %31, 20035
  %.3 = select i1 %36, ptr @.str.29, ptr %spec.select
  %37 = icmp eq i16 %31, 17998
  %.4 = select i1 %37, ptr @.str.30, ptr %.3
  %38 = icmp eq i16 %31, 18756
  %.5 = select i1 %38, ptr @.str.31, ptr %.4
  %39 = icmp eq i16 %31, 20564
  %.6 = select i1 %39, ptr @.str.32, ptr %.5
  %40 = icmp eq i16 %31, 19781
  %spec.select116 = select i1 %40, ptr @.str.33, ptr %.6
  br label %41

41:                                               ; preds = %34, %30
  %.1112 = phi ptr [ %.0111, %30 ], [ %spec.select116, %34 ]
  %42 = add i32 %.0110, 2
  %43 = tail call zeroext i8 @tvb_get_uint8(ptr noundef %0, i32 noundef %42)
  %44 = add i32 %.0110, 3
  %45 = tail call zeroext i8 @tvb_get_uint8(ptr noundef %0, i32 noundef %44)
  %46 = add i32 %.0110, 4
  switch i8 %43, label %81 [
    i8 1, label %47
    i8 0, label %57
  ]

47:                                               ; preds = %41
  %48 = load ptr, ptr %29, align 8
  %49 = zext i8 %45 to i32
  %50 = tail call ptr @tvb_get_string_enc(ptr noundef %48, ptr noundef %0, i32 noundef %46, i32 noundef %49, i32 noundef 0)
  %51 = load i32, ptr @hf_manolito_string, align 4
  %52 = add nuw nsw i32 %49, 4
  %53 = zext i16 %31 to i32
  %54 = tail call ptr @val_to_str_ext_const(i32 noundef %53, ptr noundef nonnull @field_longname_ext, ptr noundef nonnull @.str.35)
  %55 = tail call ptr (ptr, i32, ptr, i32, i32, ptr, ptr, ...) @proto_tree_add_string_format(ptr noundef %10, i32 noundef %51, ptr noundef %0, i32 noundef %.0110, i32 noundef %52, ptr noundef %50, ptr noundef nonnull @.str.34, ptr noundef %33, ptr noundef %54, ptr noundef %50)
  %56 = add i32 %46, %49
  br label %84

57:                                               ; preds = %41
  %58 = zext i8 %45 to i32
  switch i8 %45, label %79 [
    i8 5, label %59
    i8 4, label %61
    i8 3, label %64
    i8 2, label %67
    i8 1, label %70
  ]

59:                                               ; preds = %57
  %60 = tail call i64 @tvb_get_ntoh40(ptr noundef %0, i32 noundef %46)
  br label %73

61:                                               ; preds = %57
  %62 = tail call i32 @tvb_get_ntohl(ptr noundef %0, i32 noundef %46)
  %63 = zext i32 %62 to i64
  br label %73

64:                                               ; preds = %57
  %65 = tail call i32 @tvb_get_ntoh24(ptr noundef %0, i32 noundef %46)
  %66 = zext i32 %65 to i64
  br label %73

67:                                               ; preds = %57
  %68 = tail call zeroext i16 @tvb_get_ntohs(ptr noundef %0, i32 noundef %46)
  %69 = zext i16 %68 to i64
  br label %73

70:                                               ; preds = %57
  %71 = tail call zeroext i8 @tvb_get_uint8(ptr noundef %0, i32 noundef %46)
  %72 = zext i8 %71 to i64
  br label %73

73:                                               ; preds = %70, %67, %64, %61, %59
  %.0.ph = phi i64 [ %60, %59 ], [ %63, %61 ], [ %66, %64 ], [ %69, %67 ], [ %72, %70 ]
  %74 = load i32, ptr @hf_manolito_integer, align 4
  %75 = add nuw nsw i32 %58, 4
  %76 = zext i16 %31 to i32
  %77 = tail call ptr @val_to_str_ext_const(i32 noundef %76, ptr noundef nonnull @field_longname_ext, ptr noundef nonnull @.str.35)
  %78 = tail call ptr (ptr, i32, ptr, i32, i32, i64, ptr, ...) @proto_tree_add_uint64_format(ptr noundef %10, i32 noundef %74, ptr noundef %0, i32 noundef %.0110, i32 noundef %75, i64 noundef %.0.ph, ptr noundef nonnull @.str.36, ptr noundef %33, ptr noundef %77, i64 noundef %.0.ph)
  br label %79

79:                                               ; preds = %57, %73
  %80 = add i32 %46, %58
  br label %84

81:                                               ; preds = %41
  %82 = zext i8 %43 to i32
  %83 = tail call ptr (ptr, ptr, ptr, ptr, i32, i32, ptr, ...) @proto_tree_add_expert_format(ptr noundef %10, ptr noundef %1, ptr noundef nonnull @ei_manolito_type, ptr noundef %0, i32 noundef %.0110, i32 noundef 4, ptr noundef nonnull @.str.37, i32 noundef %82)
  br label %84

84:                                               ; preds = %79, %81, %47
  %.1 = phi i32 [ %56, %47 ], [ %80, %79 ], [ %46, %81 ]
  %85 = tail call i32 @tvb_reported_length_remaining(ptr noundef %0, i32 noundef %.1)
  %.not114 = icmp eq i32 %85, 0
  br i1 %.not114, label %86, label %30, !llvm.loop !6

86:                                               ; preds = %84
  %.not115 = icmp eq ptr %.1112, null
  br i1 %.not115, label %88, label %.sink.split

.sink.split:                                      ; preds = %86, %24, %21
  %.1112.lcssa.sink = phi ptr [ @.str.26, %21 ], [ @.str.27, %24 ], [ %.1112, %86 ]
  %.0109.ph = phi i32 [ 19, %21 ], [ 20, %24 ], [ %.1, %86 ]
  %87 = load ptr, ptr %5, align 8
  tail call void @col_set_str(ptr noundef %87, i32 noundef 25, ptr noundef nonnull %.1112.lcssa.sink)
  br label %88

88:                                               ; preds = %.sink.split, %86
  %.0109 = phi i32 [ %.1, %86 ], [ %.0109.ph, %.sink.split ]
  ret i32 %.0109
}